; Function Attrs: nounwind uwtable
define void @Acb_CollectIntNodes(ptr noundef %0, ptr noundef initializes((4, 8)) %1, ptr noundef initializes((4, 8)) %2) local_unnamed_addr #0 {
  %4 = getelementptr inbounds nuw i8, ptr %1, i64 4
  store i32 0, ptr %4, align 4
  %5 = getelementptr inbounds nuw i8, ptr %2, i64 4
  store i32 0, ptr %5, align 4
  tail call void @Gia_ManIncrementTravId(ptr noundef %0) #31
  %6 = getelementptr i8, ptr %0, i64 32
  %7 = getelementptr inbounds nuw i8, ptr %0, i64 176
  %8 = load i32, ptr %7, align 8
  %9 = getelementptr inbounds nuw i8, ptr %0, i64 616
  %10 = load ptr, ptr %9, align 8
  store i32 %8, ptr %10, align 4
  %11 = getelementptr inbounds nuw i8, ptr %0, i64 64
  %12 = load ptr, ptr %11, align 8
  %13 = getelementptr i8, ptr %12, i64 4
  %.val4050 = load i32, ptr %13, align 4
  %14 = icmp sgt i32 %.val4050, 0
  br i1 %14, label %.lr.ph, label %.critedge

.lr.ph:                                           ; preds = %3, %16
  %indvars.iv = phi i64 [ %indvars.iv.next, %16 ], [ 0, %3 ]
  %15 = phi ptr [ %24, %16 ], [ %12, %3 ]
  %.val41 = load ptr, ptr %6, align 8
  %.not = icmp eq ptr %.val41, null
  br i1 %.not, label %.critedge, label %16

16:                                               ; preds = %.lr.ph
  %17 = getelementptr i8, ptr %15, i64 8
  %.val42.val = load ptr, ptr %17, align 8
  %18 = getelementptr inbounds nuw i32, ptr %.val42.val, i64 %indvars.iv
  %19 = load i32, ptr %18, align 4
  %20 = zext i32 %19 to i64
  %21 = load ptr, ptr %9, align 8
  %sext.i49 = shl nuw i64 %20, 32
  %22 = ashr exact i64 %sext.i49, 30
  %23 = getelementptr inbounds i8, ptr %21, i64 %22
  store i32 %8, ptr %23, align 4
  %indvars.iv.next = add nuw nsw i64 %indvars.iv, 1
  %24 = load ptr, ptr %11, align 8
  %25 = getelementptr i8, ptr %24, i64 4
  %.val40 = load i32, ptr %25, align 4
  %26 = sext i32 %.val40 to i64
  %27 = icmp slt i64 %indvars.iv.next, %26
  br i1 %27, label %.lr.ph, label %.critedge, !llvm.loop !131

.critedge:                                        ; preds = %.lr.ph, %16, %3
  %28 = getelementptr inbounds nuw i8, ptr %0, i64 72
  %29 = load ptr, ptr %28, align 8
  %30 = getelementptr i8, ptr %29, i64 4
  %.val3953 = load i32, ptr %30, align 4
  %31 = icmp sgt i32 %.val3953, 0
  br i1 %31, label %.lr.ph55.preheader, label %.critedge4

.lr.ph55.preheader:                               ; preds = %.critedge
  %.val4673 = load ptr, ptr %6, align 8
  %.not3675 = icmp eq ptr %.val4673, null
  br i1 %.not3675, label %.critedge2, label %.lr.ph77

.lr.ph77:                                         ; preds = %.lr.ph55.preheader
  %32 = getelementptr i8, ptr %29, i64 8
  %.val47.val74 = load ptr, ptr %32, align 8
  %33 = load i32, ptr %.val47.val74, align 4
  %34 = sext i32 %33 to i64
  %35 = getelementptr inbounds %struct.Gia_Obj_t_, ptr %.val4673, i64 %34
  br label %41

.lr.ph55:                                         ; preds = %49
  %.val46 = load ptr, ptr %6, align 8
  %36 = getelementptr i8, ptr %50, i64 8
  %.val47.val = load ptr, ptr %36, align 8
  %37 = getelementptr inbounds nuw i32, ptr %.val47.val, i64 %indvars.iv.next63
  %38 = load i32, ptr %37, align 4
  %39 = sext i32 %38 to i64
  %40 = getelementptr inbounds %struct.Gia_Obj_t_, ptr %.val46, i64 %39
  %.not36 = icmp eq ptr %.val46, null
  br i1 %.not36, label %.critedge2.loopexit, label %41, !llvm.loop !132

41:                                               ; preds = %.lr.ph77, %.lr.ph55
  %42 = phi ptr [ %35, %.lr.ph77 ], [ %40, %.lr.ph55 ]
  %indvars.iv6276 = phi i64 [ 0, %.lr.ph77 ], [ %indvars.iv.next63, %.lr.ph55 ]
  %43 = phi ptr [ %29, %.lr.ph77 ], [ %50, %.lr.ph55 ]
  %.not38 = icmp eq i64 %indvars.iv6276, 0
  br i1 %.not38, label %49, label %44

44:                                               ; preds = %41
  %45 = load i64, ptr %42, align 4
  %46 = and i64 %45, 536870911
  %47 = sub nsw i64 0, %46
  %48 = getelementptr inbounds %struct.Gia_Obj_t_, ptr %42, i64 %47
  tail call void @Acb_CollectIntNodes_rec(ptr noundef nonnull %0, ptr noundef nonnull %48, ptr noundef %2)
  %.pre = load ptr, ptr %28, align 8
  br label %49

49:                                               ; preds = %41, %44
  %50 = phi ptr [ %43, %41 ], [ %.pre, %44 ]
  %indvars.iv.next63 = add nuw nsw i64 %indvars.iv6276, 1
  %51 = getelementptr i8, ptr %50, i64 4
  %.val39 = load i32, ptr %51, align 4
  %52 = sext i32 %.val39 to i64
  %53 = icmp slt i64 %indvars.iv.next63, %52
  br i1 %53, label %.lr.ph55, label %.critedge2.loopexit, !llvm.loop !132

.critedge2.loopexit:                              ; preds = %.lr.ph55, %49
  %54 = icmp sgt i32 %.val39, 0
  br label %.critedge2

.critedge2:                                       ; preds = %.critedge2.loopexit, %.lr.ph55.preheader
  %.val57.pre = phi i1 [ true, %.lr.ph55.preheader ], [ %54, %.critedge2.loopexit ]
  %55 = phi ptr [ %29, %.lr.ph55.preheader ], [ %50, %.critedge2.loopexit ]
  br i1 %.val57.pre, label %.lr.ph59, label %.critedge4

.lr.ph59:                                         ; preds = %.critedge2, %69
  %56 = phi ptr [ %70, %69 ], [ %55, %.critedge2 ]
  %indvars.iv65 = phi i64 [ %indvars.iv.next66, %69 ], [ 0, %.critedge2 ]
  %.val44 = load ptr, ptr %6, align 8
  %57 = getelementptr i8, ptr %56, i64 8
  %.val45.val = load ptr, ptr %57, align 8
  %58 = getelementptr inbounds nuw i32, ptr %.val45.val, i64 %indvars.iv65
  %59 = load i32, ptr %58, align 4
  %60 = sext i32 %59 to i64
  %61 = getelementptr inbounds %struct.Gia_Obj_t_, ptr %.val44, i64 %60
  %.not37 = icmp eq ptr %.val44, null
  br i1 %.not37, label %.critedge4, label %62

62:                                               ; preds = %.lr.ph59
  %63 = icmp eq i64 %indvars.iv65, 0
  br i1 %63, label %64, label %69

64:                                               ; preds = %62
  %65 = load i64, ptr %61, align 4
  %66 = and i64 %65, 536870911
  %67 = sub nsw i64 0, %66
  %68 = getelementptr inbounds %struct.Gia_Obj_t_, ptr %61, i64 %67
  tail call void @Acb_CollectIntNodes_rec(ptr noundef nonnull %0, ptr noundef nonnull %68, ptr noundef %1)
  %.pre69 = load ptr, ptr %28, align 8
  br label %69

69:                                               ; preds = %62, %64
  %70 = phi ptr [ %56, %62 ], [ %.pre69, %64 ]
  %indvars.iv.next66 = add nuw nsw i64 %indvars.iv65, 1
  %71 = getelementptr i8, ptr %70, i64 4
  %.val = load i32, ptr %71, align 4
  %72 = sext i32 %.val to i64
  %73 = icmp slt i64 %indvars.iv.next66, %72
  br i1 %73, label %.lr.ph59, label %.critedge4, !llvm.loop !133

.critedge4:                                       ; preds = %.lr.ph59, %69, %.critedge, %.critedge2
  ret void
}